; Function Attrs: mustprogress nofree norecurse nosync nounwind willreturn memory(argmem: readwrite) uwtable
define void @wolfSSL_CTX_set_verify(ptr noundef captures(address_is_null) %0, i32 noundef %1, ptr noundef %2) local_unnamed_addr #4 {
  %4 = icmp eq ptr %0, null
  br i1 %4, label %31, label %5

5:                                                ; preds = %3
  switch i32 %1, label %6 [
    i32 512, label %ModeToVerifyOptions.exit
    i32 0, label %.fold.split.i
  ]

6:                                                ; preds = %5
  %7 = trunc i32 %1 to i8
  %8 = and i8 %7, 1
  %9 = lshr i8 %7, 1
  %10 = and i8 %9, 8
  %11 = or disjoint i8 %10, %8
  %12 = shl i8 %7, 1
  %13 = and i8 %12, 4
  %14 = or disjoint i8 %11, %13
  br label %ModeToVerifyOptions.exit

.fold.split.i:                                    ; preds = %5
  br label %ModeToVerifyOptions.exit

ModeToVerifyOptions.exit:                         ; preds = %5, %6, %.fold.split.i
  %.sroa.0.0.i = phi i8 [ %14, %6 ], [ 0, %5 ], [ 2, %.fold.split.i ]
  %15 = getelementptr inbounds nuw i8, ptr %0, i64 169
  %16 = load i16, ptr %15, align 1
  %17 = and i8 %.sroa.0.0.i, 2
  %18 = zext nneg i8 %17 to i16
  %19 = and i16 %16, -16
  %20 = or disjoint i16 %19, %18
  %21 = and i8 %.sroa.0.0.i, 1
  %22 = zext nneg i8 %21 to i16
  %23 = or disjoint i16 %20, %22
  %24 = and i8 %.sroa.0.0.i, 4
  %25 = zext nneg i8 %24 to i16
  %26 = or disjoint i16 %23, %25
  %27 = and i8 %.sroa.0.0.i, 8
  %28 = zext nneg i8 %27 to i16
  %29 = or disjoint i16 %26, %28
  store i16 %29, ptr %15, align 1
  %30 = getelementptr inbounds nuw i8, ptr %0, i64 208
  store ptr %2, ptr %30, align 8, !tbaa !17
  br label %31

31:                                               ; preds = %3, %ModeToVerifyOptions.exit
  ret void
}